target datalayout = "e-m:e-p270:32:32-p271:32:32-p272:64:64-i64:64-i128:128-f80:128-n8:16:32:64-S128"
target triple = "x86_64-pc-linux-gnu"

%struct.cl_fmap = type { ptr, ptr, ptr, i64, i64, i64, i64, i8, i8, i8, i64, i64, i64, i64, ptr, ptr, ptr, ptr, ptr, ptr, ptr, i8, [16 x i8], i8, [20 x i8], i8, [32 x i8], ptr, ptr }
%struct.SISTREAM = type { ptr, i64, [8192 x i8], i32, i32, [7 x i64], [7 x i32], i32 }

; Function Attrs: nounwind uwtable
define internal ptr @fmap_need_off_once(ptr noundef %0, i64 noundef %1, i64 noundef %2) #0 {
  %4 = alloca ptr, align 8
  %5 = alloca i64, align 8
  %6 = alloca i64, align 8
  store ptr %0, ptr %4, align 8
  store i64 %1, ptr %5, align 8
  store i64 %2, ptr %6, align 8
  %7 = load ptr, ptr %4, align 8
  %8 = getelementptr inbounds %struct.cl_fmap, ptr %7, i32 0, i32 15
  %9 = load ptr, ptr %8, align 8
  %10 = load ptr, ptr %4, align 8
  %11 = load i64, ptr %5, align 8
  %12 = load i64, ptr %6, align 8
  %13 = call ptr %9(ptr noundef %10, i64 noundef %11, i64 noundef %12, i32 noundef 0)
  ret ptr %13
}

; Function Attrs: nounwind uwtable
define internal i64 @fmap_readn(ptr noundef %0, ptr noundef %1, i64 noundef %2, i64 noundef %3) #0 {
  %5 = alloca i64, align 8
  %6 = alloca ptr, align 8
  %7 = alloca ptr, align 8
  %8 = alloca i64, align 8
  %9 = alloca i64, align 8
  %10 = alloca ptr, align 8
  store ptr %0, ptr %6, align 8
  store ptr %1, ptr %7, align 8
  store i64 %2, ptr %8, align 8
  store i64 %3, ptr %9, align 8
  %11 = load i64, ptr %8, align 8
  %12 = load ptr, ptr %6, align 8
  %13 = getelementptr inbounds %struct.cl_fmap, ptr %12, i32 0, i32 13
  %14 = load i64, ptr %13, align 8
  %15 = icmp eq i64 %11, %14
  br i1 %15, label %19, label %16

16:                                               ; preds = %4
  %17 = load i64, ptr %9, align 8
  %18 = icmp ne i64 %17, 0
  br i1 %18, label %20, label %19

19:                                               ; preds = %16, %4
  store i64 0, ptr %5, align 8
  br label %60

20:                                               ; preds = %16
  %21 = load i64, ptr %8, align 8
  %22 = load ptr, ptr %6, align 8
  %23 = getelementptr inbounds %struct.cl_fmap, ptr %22, i32 0, i32 13
  %24 = load i64, ptr %23, align 8
  %25 = icmp ugt i64 %21, %24
  br i1 %25, label %26, label %27

26:                                               ; preds = %20
  store i64 -1, ptr %5, align 8
  br label %60

27:                                               ; preds = %20
  %28 = load i64, ptr %9, align 8
  %29 = load ptr, ptr %6, align 8
  %30 = getelementptr inbounds %struct.cl_fmap, ptr %29, i32 0, i32 13
  %31 = load i64, ptr %30, align 8
  %32 = load i64, ptr %8, align 8
  %33 = sub i64 %31, %32
  %34 = icmp ugt i64 %28, %33
  br i1 %34, label %35, label %41

35:                                               ; preds = %27
  %36 = load ptr, ptr %6, align 8
  %37 = getelementptr inbounds %struct.cl_fmap, ptr %36, i32 0, i32 13
  %38 = load i64, ptr %37, align 8
  %39 = load i64, ptr %8, align 8
  %40 = sub i64 %38, %39
  store i64 %40, ptr %9, align 8
  br label %41

41:                                               ; preds = %35, %27
  %42 = load ptr, ptr %6, align 8
  %43 = load i64, ptr %8, align 8
  %44 = load i64, ptr %9, align 8
  %45 = call ptr @fmap_need_off_once(ptr noundef %42, i64 noundef %43, i64 noundef %44)
  store ptr %45, ptr %10, align 8
  %46 = load ptr, ptr %10, align 8
  %47 = icmp ne ptr %46, null
  br i1 %47, label %49, label %48

48:                                               ; preds = %41
  store i64 -1, ptr %5, align 8
  br label %60

49:                                               ; preds = %41
  %50 = load ptr, ptr %7, align 8
  %51 = load ptr, ptr %10, align 8
  %52 = load i64, ptr %9, align 8
  call void @llvm.memcpy.p0.p0.i64(ptr align 1 %50, ptr align 1 %51, i64 %52, i1 false)
  %53 = load i64, ptr %9, align 8
  %54 = icmp ule i64 %53, 2147483647
  br i1 %54, label %55, label %57

55:                                               ; preds = %49
  %56 = load i64, ptr %9, align 8
  br label %58

57:                                               ; preds = %49
  br label %58

58:                                               ; preds = %57, %55
  %59 = phi i64 [ %56, %55 ], [ -1, %57 ]
  store i64 %59, ptr %5, align 8
  br label %60

60:                                               ; preds = %58, %48, %26, %19
  %61 = load i64, ptr %5, align 8
  ret i64 %61
}

; Function Attrs: nounwind uwtable
define internal i32 @getd(ptr noundef %0, ptr noundef %1) #0 {
  %3 = alloca i32, align 4
  %4 = alloca ptr, align 8
  %5 = alloca ptr, align 8
  %6 = alloca i64, align 8
  store ptr %0, ptr %4, align 8
  store ptr %1, ptr %5, align 8
  %7 = load ptr, ptr %4, align 8
  %8 = getelementptr inbounds %struct.SISTREAM, ptr %7, i32 0, i32 4
  %9 = load i32, ptr %8, align 4
  %10 = icmp ult i32 %9, 4
  br i1 %10, label %11, label %74

11:                                               ; preds = %2
  %12 = load ptr, ptr %4, align 8
  %13 = getelementptr inbounds %struct.SISTREAM, ptr %12, i32 0, i32 2
  %14 = getelementptr inbounds [8192 x i8], ptr %13, i64 0, i64 0
  %15 = load ptr, ptr %4, align 8
  %16 = getelementptr inbounds %struct.SISTREAM, ptr %15, i32 0, i32 2
  %17 = getelementptr inbounds [8192 x i8], ptr %16, i64 0, i64 0
  %18 = load ptr, ptr %4, align 8
  %19 = getelementptr inbounds %struct.SISTREAM, ptr %18, i32 0, i32 3
  %20 = load i32, ptr %19, align 8
  %21 = zext i32 %20 to i64
  %22 = getelementptr inbounds i8, ptr %17, i64 %21
  %23 = load ptr, ptr %4, align 8
  %24 = getelementptr inbounds %struct.SISTREAM, ptr %23, i32 0, i32 4
  %25 = load i32, ptr %24, align 4
  %26 = zext i32 %25 to i64
  %27 = sub i64 0, %26
  %28 = getelementptr inbounds i8, ptr %22, i64 %27
  %29 = load ptr, ptr %4, align 8
  %30 = getelementptr inbounds %struct.SISTREAM, ptr %29, i32 0, i32 4
  %31 = load i32, ptr %30, align 4
  %32 = zext i32 %31 to i64
  call void @llvm.memcpy.p0.p0.i64(ptr align 8 %14, ptr align 1 %28, i64 %32, i1 false)
  %33 = load ptr, ptr %4, align 8
  %34 = getelementptr inbounds %struct.SISTREAM, ptr %33, i32 0, i32 0
  %35 = load ptr, ptr %34, align 8
  %36 = load ptr, ptr %4, align 8
  %37 = getelementptr inbounds %struct.SISTREAM, ptr %36, i32 0, i32 2
  %38 = load ptr, ptr %4, align 8
  %39 = getelementptr inbounds %struct.SISTREAM, ptr %38, i32 0, i32 4
  %40 = load i32, ptr %39, align 4
  %41 = zext i32 %40 to i64
  %42 = getelementptr inbounds [8192 x i8], ptr %37, i64 0, i64 %41
  %43 = load ptr, ptr %4, align 8
  %44 = getelementptr inbounds %struct.SISTREAM, ptr %43, i32 0, i32 1
  %45 = load i64, ptr %44, align 8
  %46 = load ptr, ptr %4, align 8
  %47 = getelementptr inbounds %struct.SISTREAM, ptr %46, i32 0, i32 4
  %48 = load i32, ptr %47, align 4
  %49 = sub i32 8192, %48
  %50 = zext i32 %49 to i64
  %51 = call i64 @fmap_readn(ptr noundef %35, ptr noundef %42, i64 noundef %45, i64 noundef %50)
  store i64 %51, ptr %6, align 8
  %52 = load i64, ptr %6, align 8
  %53 = icmp eq i64 %52, -1
  br i1 %53, label %67, label %54

54:                                               ; preds = %11
  %55 = load i64, ptr %6, align 8
  %56 = load ptr, ptr %4, align 8
  %57 = getelementptr inbounds %struct.SISTREAM, ptr %56, i32 0, i32 4
  %58 = load i32, ptr %57, align 4
  %59 = zext i32 %58 to i64
  %60 = add i64 %55, %59
  %61 = trunc i64 %60 to i32
  %62 = load ptr, ptr %4, align 8
  %63 = getelementptr inbounds %struct.SISTREAM, ptr %62, i32 0, i32 3
  store i32 %61, ptr %63, align 8
  %64 = load ptr, ptr %4, align 8
  %65 = getelementptr inbounds %struct.SISTREAM, ptr %64, i32 0, i32 4
  store i32 %61, ptr %65, align 4
  %66 = icmp ult i32 %61, 4
  br i1 %66, label %67, label %68

67:                                               ; preds = %54, %11
  store i32 1, ptr %3, align 4
  br label %92

68:                                               ; preds = %54
  %69 = load i64, ptr %6, align 8
  %70 = load ptr, ptr %4, align 8
  %71 = getelementptr inbounds %struct.SISTREAM, ptr %70, i32 0, i32 1
  %72 = load i64, ptr %71, align 8
  %73 = add i64 %72, %69
  store i64 %73, ptr %71, align 8
  br label %74

74:                                               ; preds = %68, %2
  %75 = load ptr, ptr %4, align 8
  %76 = getelementptr inbounds %struct.SISTREAM, ptr %75, i32 0, i32 2
  %77 = load ptr, ptr %4, align 8
  %78 = getelementptr inbounds %struct.SISTREAM, ptr %77, i32 0, i32 3
  %79 = load i32, ptr %78, align 8
  %80 = load ptr, ptr %4, align 8
  %81 = getelementptr inbounds %struct.SISTREAM, ptr %80, i32 0, i32 4
  %82 = load i32, ptr %81, align 4
  %83 = sub i32 %79, %82
  %84 = zext i32 %83 to i64
  %85 = getelementptr inbounds [8192 x i8], ptr %76, i64 0, i64 %84
  %86 = load i32, ptr %85, align 1
  %87 = load ptr, ptr %5, align 8
  store i32 %86, ptr %87, align 4
  %88 = load ptr, ptr %4, align 8
  %89 = getelementptr inbounds %struct.SISTREAM, ptr %88, i32 0, i32 4
  %90 = load i32, ptr %89, align 4
  %91 = sub i32 %90, 4
  store i32 %91, ptr %89, align 4
  store i32 0, ptr %3, align 4
  br label %92

92:                                               ; preds = %74, %67
  %93 = load i32, ptr %3, align 4
  ret i32 %93
}

; Function Attrs: nounwind uwtable
define internal i32 @getsize(ptr noundef %0) #0 {
  %2 = alloca i32, align 4
  %3 = alloca ptr, align 8
  %4 = alloca ptr, align 8
  store ptr %0, ptr %3, align 8
  %5 = load ptr, ptr %3, align 8
  %6 = getelementptr inbounds %struct.SISTREAM, ptr %5, i32 0, i32 6
  %7 = load ptr, ptr %3, align 8
  %8 = getelementptr inbounds %struct.SISTREAM, ptr %7, i32 0, i32 7
  %9 = load i32, ptr %8, align 4
  %10 = zext i32 %9 to i64
  %11 = getelementptr inbounds [7 x i32], ptr %6, i64 0, i64 %10
  store ptr %11, ptr %4, align 8
  %12 = load ptr, ptr %3, align 8
  %13 = load ptr, ptr %4, align 8
  %14 = call i32 @getd(ptr noundef %12, ptr noundef %13)
  %15 = icmp ne i32 %14, 0
  br i1 %15, label %44, label %16

16:                                               ; preds = %1
  %17 = load ptr, ptr %4, align 8
  %18 = load i32, ptr %17, align 4
  %19 = icmp ne i32 %18, 0
  br i1 %19, label %20, label %44

20:                                               ; preds = %16
  %21 = load ptr, ptr %4, align 8
  %22 = load i32, ptr %21, align 4
  %23 = lshr i32 %22, 31
  %24 = icmp ne i32 %23, 0
  br i1 %24, label %44, label %25

25:                                               ; preds = %20
  %26 = load ptr, ptr %3, align 8
  %27 = getelementptr inbounds %struct.SISTREAM, ptr %26, i32 0, i32 7
  %28 = load i32, ptr %27, align 4
  %29 = icmp ne i32 %28, 0
  br i1 %29, label %30, label %45

30:                                               ; preds = %25
  %31 = load ptr, ptr %4, align 8
  %32 = load i32, ptr %31, align 4
  %33 = load ptr, ptr %3, align 8
  %34 = getelementptr inbounds %struct.SISTREAM, ptr %33, i32 0, i32 6
  %35 = load ptr, ptr %3, align 8
  %36 = getelementptr inbounds %struct.SISTREAM, ptr %35, i32 0, i32 7
  %37 = load i32, ptr %36, align 4
  %38 = sub i32 %37, 1
  %39 = zext i32 %38 to i64
  %40 = getelementptr inbounds [7 x i32], ptr %34, i64 0, i64 %39
  %41 = load i32, ptr %40, align 4
  %42 = mul i32 %41, 2
  %43 = icmp ugt i32 %32, %42
  br i1 %43, label %44, label %45

44:                                               ; preds = %30, %20, %16, %1
  store i32 1, ptr %2, align 4
  br label %65

45:                                               ; preds = %30, %25
  %46 = load ptr, ptr %3, align 8
  %47 = getelementptr inbounds %struct.SISTREAM, ptr %46, i32 0, i32 1
  %48 = load i64, ptr %47, align 8
  %49 = load ptr, ptr %3, align 8
  %50 = getelementptr inbounds %struct.SISTREAM, ptr %49, i32 0, i32 4
  %51 = load i32, ptr %50, align 4
  %52 = zext i32 %51 to i64
  %53 = sub i64 %48, %52
  %54 = load ptr, ptr %4, align 8
  %55 = load i32, ptr %54, align 4
  %56 = zext i32 %55 to i64
  %57 = add i64 %53, %56
  %58 = load ptr, ptr %3, align 8
  %59 = getelementptr inbounds %struct.SISTREAM, ptr %58, i32 0, i32 5
  %60 = load ptr, ptr %3, align 8
  %61 = getelementptr inbounds %struct.SISTREAM, ptr %60, i32 0, i32 7
  %62 = load i32, ptr %61, align 4
  %63 = zext i32 %62 to i64
  %64 = getelementptr inbounds [7 x i64], ptr %59, i64 0, i64 %63
  store i64 %57, ptr %64, align 8
  store i32 0, ptr %2, align 4
  br label %65

65:                                               ; preds = %45, %44
  %66 = load i32, ptr %2, align 4
  ret i32 %66
}