; Function Attrs: nounwind uwtable
define internal fastcc range(i32 0, 2) i32 @getsize(ptr noundef nonnull captures(none) %0) unnamed_addr #0 {
  %2 = getelementptr inbounds nuw i8, ptr %0, i64 8272
  %3 = getelementptr inbounds nuw i8, ptr %0, i64 8300
  %4 = load i32, ptr %3, align 4
  %5 = zext i32 %4 to i64
  %6 = getelementptr inbounds nuw [7 x i32], ptr %2, i64 0, i64 %5
  %7 = getelementptr inbounds nuw i8, ptr %0, i64 8212
  %8 = load i32, ptr %7, align 4
  %9 = icmp ult i32 %8, 4
  br i1 %9, label %10, label %._crit_edge.i

._crit_edge.i:                                    ; preds = %1
  %.phi.trans.insert.i = getelementptr inbounds nuw i8, ptr %0, i64 8208
  %.pre26.i = load i32, ptr %.phi.trans.insert.i, align 8
  br label %47

10:                                               ; preds = %1
  %11 = getelementptr inbounds nuw i8, ptr %0, i64 16
  %12 = getelementptr inbounds nuw i8, ptr %0, i64 8208
  %13 = load i32, ptr %12, align 8
  %14 = zext i32 %13 to i64
  %15 = getelementptr inbounds nuw i8, ptr %11, i64 %14
  %16 = zext nneg i32 %8 to i64
  %17 = sub nsw i64 0, %16
  %18 = getelementptr inbounds i8, ptr %15, i64 %17
  tail call void @llvm.memcpy.p0.p0.i64(ptr nonnull align 8 %11, ptr nonnull align 1 %18, i64 %16, i1 false)
  %19 = load ptr, ptr %0, align 8
  %20 = load i32, ptr %7, align 4
  %21 = zext i32 %20 to i64
  %22 = getelementptr inbounds nuw [8192 x i8], ptr %11, i64 0, i64 %21
  %23 = getelementptr inbounds nuw i8, ptr %0, i64 8
  %24 = load i64, ptr %23, align 8
  %25 = sub i32 8192, %20
  %26 = zext i32 %25 to i64
  %27 = getelementptr inbounds nuw i8, ptr %19, i64 88
  %28 = load i64, ptr %27, align 8
  %29 = icmp ne i64 %24, %28
  %30 = icmp ne i32 %20, 8192
  %or.cond.i.i = and i1 %30, %29
  br i1 %or.cond.i.i, label %31, label %fmap_readn.exit.i

31:                                               ; preds = %10
  %32 = icmp ugt i64 %24, %28
  br i1 %32, label %getd.exit.thread, label %33

33:                                               ; preds = %31
  %34 = sub nuw i64 %28, %24
  %spec.select.i.i = tail call i64 @llvm.umin.i64(i64 range(i64 0, 4294967296) %26, i64 %34)
  %35 = getelementptr inbounds nuw i8, ptr %19, i64 104
  %36 = load ptr, ptr %35, align 8
  %37 = tail call ptr %36(ptr noundef nonnull %19, i64 noundef %24, i64 noundef %spec.select.i.i, i32 noundef 0) #8
  %.not.i.i = icmp eq ptr %37, null
  br i1 %.not.i.i, label %getd.exit.thread, label %38

38:                                               ; preds = %33
  tail call void @llvm.memcpy.p0.p0.i64(ptr nonnull align 1 %22, ptr nonnull align 1 %37, i64 %spec.select.i.i, i1 false)
  %39 = icmp samesign ult i64 %spec.select.i.i, 2147483648
  br i1 %39, label %.fmap_readn.exit_crit_edge.i, label %getd.exit.thread

.fmap_readn.exit_crit_edge.i:                     ; preds = %38
  %.pre.i = load i32, ptr %7, align 4
  br label %fmap_readn.exit.i

fmap_readn.exit.i:                                ; preds = %.fmap_readn.exit_crit_edge.i, %10
  %40 = phi i32 [ %20, %10 ], [ %.pre.i, %.fmap_readn.exit_crit_edge.i ]
  %.0.i.i = phi i64 [ 0, %10 ], [ %spec.select.i.i, %.fmap_readn.exit_crit_edge.i ]
  %41 = trunc nuw i64 %.0.i.i to i32
  %42 = add i32 %40, %41
  store i32 %42, ptr %12, align 8
  store i32 %42, ptr %7, align 4
  %43 = icmp ult i32 %42, 4
  br i1 %43, label %getd.exit.thread, label %44

44:                                               ; preds = %fmap_readn.exit.i
  %45 = load i64, ptr %23, align 8
  %46 = add i64 %45, %.0.i.i
  store i64 %46, ptr %23, align 8
  br label %47

47:                                               ; preds = %44, %._crit_edge.i
  %48 = phi i32 [ %8, %._crit_edge.i ], [ %42, %44 ]
  %49 = phi i32 [ %.pre26.i, %._crit_edge.i ], [ %42, %44 ]
  %50 = getelementptr inbounds nuw i8, ptr %0, i64 16
  %51 = sub i32 %49, %48
  %52 = zext i32 %51 to i64
  %53 = getelementptr inbounds nuw [8192 x i8], ptr %50, i64 0, i64 %52
  %54 = load i32, ptr %53, align 1
  store i32 %54, ptr %6, align 4
  %55 = add i32 %48, -4
  store i32 %55, ptr %7, align 4
  %or.cond = icmp sgt i32 %54, 0
  br i1 %or.cond, label %56, label %getd.exit.thread

56:                                               ; preds = %47
  %57 = load i32, ptr %3, align 4
  %.not19 = icmp eq i32 %57, 0
  br i1 %.not19, label %65, label %58

58:                                               ; preds = %56
  %59 = add i32 %57, -1
  %60 = zext i32 %59 to i64
  %61 = getelementptr inbounds nuw [7 x i32], ptr %2, i64 0, i64 %60
  %62 = load i32, ptr %61, align 4
  %63 = shl i32 %62, 1
  %64 = icmp ugt i32 %54, %63
  br i1 %64, label %getd.exit.thread, label %65

65:                                               ; preds = %58, %56
  %66 = getelementptr inbounds nuw i8, ptr %0, i64 8
  %67 = load i64, ptr %66, align 8
  %68 = zext i32 %55 to i64
  %69 = zext nneg i32 %54 to i64
  %70 = add i64 %67, %69
  %71 = sub i64 %70, %68
  %72 = getelementptr inbounds nuw i8, ptr %0, i64 8216
  %73 = zext i32 %57 to i64
  %74 = getelementptr inbounds nuw [7 x i64], ptr %72, i64 0, i64 %73
  store i64 %71, ptr %74, align 8
  br label %getd.exit.thread

getd.exit.thread:                                 ; preds = %33, %31, %38, %fmap_readn.exit.i, %47, %58, %65
  %.0 = phi i32 [ 0, %65 ], [ 1, %58 ], [ 1, %47 ], [ 1, %fmap_readn.exit.i ], [ 1, %38 ], [ 1, %31 ], [ 1, %33 ]
  ret i32 %.0
}